# SymbolsHelper-Confirmed: 6.2.1 amd64
libQt6ShaderTools.so.6 libqt6shadertools6 #MINVER#
* Build-Depends-Package: libqt6shadertools6-dev
 _ZN12QShaderBaker11setPreambleERK10QByteArray@Base 6.2.0
 _ZN12QShaderBaker15setSourceDeviceEP9QIODeviceN7QShader5StageERK7QString@Base 6.2.0
 _ZN12QShaderBaker15setSourceStringERK10QByteArrayN7QShader5StageERK7QString@Base 6.2.0
 _ZN12QShaderBaker15setSpirvOptionsE6QFlagsINS_11SpirvOptionEE@Base 6.2.0
 _ZN12QShaderBaker17setSourceFileNameERK7QString@Base 6.2.0
 _ZN12QShaderBaker17setSourceFileNameERK7QStringN7QShader5StageE@Base 6.2.0
 _ZN12QShaderBaker19setGeneratedShadersERK5QListISt4pairIN7QShader6SourceE14QShaderVersionEE@Base 6.2.0
 _ZN12QShaderBaker23setPerTargetCompilationEb@Base 6.2.0
 _ZN12QShaderBaker26setGeneratedShaderVariantsERK5QListIN7QShader7VariantEE@Base 6.2.0
 _ZN12QShaderBaker42setBatchableVertexShaderExtraInputLocationEi@Base 6.2.0
 _ZN12QShaderBaker4bakeEv@Base 6.2.0
 _ZN12QShaderBakerC1Ev@Base 6.2.0
 _ZN12QShaderBakerC2Ev@Base 6.2.0
 _ZN12QShaderBakerD1Ev@Base 6.2.0
 _ZN12QShaderBakerD2Ev@Base 6.2.0
 _ZN12QSpirvShader11setFileNameERK7QString@Base 6.2.0
 _ZN12QSpirvShader14setSpirvBinaryERK10QByteArray@Base 6.2.0
 _ZN12QSpirvShader9setDeviceEP9QIODevice@Base 6.2.0
 _ZN12QSpirvShaderC1Ev@Base 6.2.0
 _ZN12QSpirvShaderC2Ev@Base 6.2.0
 _ZN12QSpirvShaderD1Ev@Base 6.2.0
 _ZN12QSpirvShaderD2Ev@Base 6.2.0
 _ZN14QSpirvCompiler11setPreambleERK10QByteArray@Base 6.2.0
 _ZN14QSpirvCompiler14compileToSpirvEv@Base 6.2.0
 _ZN14QSpirvCompiler15setSourceDeviceEP9QIODeviceN7QShader5StageERK7QString@Base 6.2.0
 _ZN14QSpirvCompiler15setSourceStringERK10QByteArrayN7QShader5StageERK7QString@Base 6.2.0
 _ZN14QSpirvCompiler17setSourceFileNameERK7QString@Base 6.2.0
 _ZN14QSpirvCompiler17setSourceFileNameERK7QStringN7QShader5StageE@Base 6.2.0
 _ZN14QSpirvCompiler32setSGBatchingVertexInputLocationEi@Base 6.2.0
 _ZN14QSpirvCompiler8setFlagsE6QFlagsINS_4FlagEE@Base 6.2.0
 _ZN14QSpirvCompilerC1Ev@Base 6.2.0
 _ZN14QSpirvCompilerC2Ev@Base 6.2.0
 _ZN14QSpirvCompilerD1Ev@Base 6.2.0
 _ZN14QSpirvCompilerD2Ev@Base 6.2.0
 _ZN20QSpirvShaderRemapper15remapLogHandlerERKNSt7__cxx1112basic_stringIcSt11char_traitsIcESaIcEEE@Base 6.2.0
 _ZN20QSpirvShaderRemapper17remapErrorHandlerERKNSt7__cxx1112basic_stringIcSt11char_traitsIcESaIcEEE@Base 6.2.0
 _ZN20QSpirvShaderRemapper5remapERK10QByteArray6QFlagsIN12QSpirvShader9RemapFlagEE@Base 6.2.0
 _ZN9__gnu_cxx12__to_xstringINSt7__cxx1112basic_stringIcSt11char_traitsIcESaIcEEEcEET_PFiPT0_mPKS8_P13__va_list_tagEmSB_z@Base 6.2.2
 _ZNK12QShaderBaker12errorMessageEv@Base 6.2.0
 _ZNK12QSpirvShader11spirvBinaryEv@Base 6.2.0
 _ZNK12QSpirvShader14translateToMSLEiP5QHashIiSt4pairIiiEE@Base 6.2.0
 _ZNK12QSpirvShader15translateToGLSLEi6QFlagsINS_8GlslFlagEE@Base 6.2.0
 _ZNK12QSpirvShader15translateToHLSLEiP5QHashIiSt4pairIiiEE@Base 6.2.0
 _ZNK12QSpirvShader17shaderDescriptionEv@Base 6.2.0
 _ZNK12QSpirvShader19remappedSpirvBinaryE6QFlagsINS_9RemapFlagEEP7QString@Base 6.2.0
 _ZNK12QSpirvShader23translationErrorMessageEv@Base 6.2.0
 _ZNK14QSpirvCompiler12errorMessageEv@Base 6.2.0
 (optional=templinst)_ZNKSt10_HashtableINSt7__cxx1112basic_stringIcSt11char_traitsIcESaIcEEES5_SaIS5_ENSt8__detail9_IdentityESt8equal_toIS5_ESt4hashIS5_ENS7_18_Mod_range_hashingENS7_20_Default_ranged_hashENS7_20_Prime_rehash_policyENS7_17_Hashtable_traitsILb1ELb1ELb1EEEE19_M_find_before_nodeEmRKS5_m@Base 6.2.0
 _ZNKSt10_HashtableINSt7__cxx1112basic_stringIcSt11char_traitsIcESaIcEEES5_SaIS5_ENSt8__detail9_IdentityESt8equal_toIS5_ESt4hashIS5_ENS7_18_Mod_range_hashingENS7_20_Default_ranged_hashENS7_20_Prime_rehash_policyENS7_17_Hashtable_traitsILb1ELb1ELb1EEEE4findERKS5_@Base 6.2.2
 _ZNKSt10_HashtableINSt7__cxx1112basic_stringIcSt11char_traitsIcESaIcEEES5_SaIS5_ENSt8__detail9_IdentityESt8equal_toIS5_ESt4hashIS5_ENS7_18_Mod_range_hashingENS7_20_Default_ranged_hashENS7_20_Prime_rehash_policyENS7_17_Hashtable_traitsILb1ELb1ELb1EEEE5countERKS5_@Base 6.2.2
 (optional=templinst)_ZNKSt10_HashtableINSt7__cxx1112basic_stringIcSt11char_traitsIcESaIcEEESt4pairIKS5_St13unordered_setImSt4hashImESt8equal_toImESaImEEESaISF_ENSt8__detail10_Select1stESB_IS5_ES9_IS5_ENSH_18_Mod_range_hashingENSH_20_Default_ranged_hashENSH_20_Prime_rehash_policyENSH_17_Hashtable_traitsILb1ELb0ELb1EEEE19_M_find_before_nodeEmRS7_m@Base 6.2.0
 (optional=templinst)_ZNKSt10_HashtableINSt7__cxx1112basic_stringIcSt11char_traitsIcESaIcEEESt4pairIKS5_jESaIS8_ENSt8__detail10_Select1stESt8equal_toIS5_ESt4hashIS5_ENSA_18_Mod_range_hashingENSA_20_Default_ranged_hashENSA_20_Prime_rehash_policyENSA_17_Hashtable_traitsILb1ELb0ELb1EEEE19_M_find_before_nodeEmRS7_m@Base 6.2.0
 _ZNKSt10_HashtableIjSt4pairIKjSt13unordered_setIjSt4hashIjESt8equal_toIjESaIjEEESaIS9_ENSt8__detail10_Select1stES6_S4_NSB_18_Mod_range_hashingENSB_20_Default_ranged_hashENSB_20_Prime_rehash_policyENSB_17_Hashtable_traitsILb0ELb0ELb1EEEE5countERS1_@Base 6.2.2
 _ZNKSt10_HashtableIjSt4pairIKjbESaIS2_ENSt8__detail10_Select1stESt8equal_toIjESt4hashIjENS4_18_Mod_range_hashingENS4_20_Default_ranged_hashENS4_20_Prime_rehash_policyENS4_17_Hashtable_traitsILb0ELb0ELb1EEEE5countERS1_@Base 6.2.2
 _ZNKSt10_HashtableIjjSaIjENSt8__detail9_IdentityESt8equal_toIjESt4hashIjENS1_18_Mod_range_hashingENS1_20_Default_ranged_hashENS1_20_Prime_rehash_policyENS1_17_Hashtable_traitsILb0ELb1ELb1EEEE5countERKj@Base 6.2.2
 (optional=templinst)_ZNKSt8_Rb_treeINSt7__cxx1112basic_stringIcSt11char_traitsIcESaIcEEES5_St9_IdentityIS5_ESt4lessIS5_ESaIS5_EE4findERKS5_@Base 6.2.0
 (optional=templinst)_ZNKSt8_Rb_treeINSt7__cxx1112basic_stringIcSt11char_traitsIcESaIcEEESt4pairIKS5_iESt10_Select1stIS8_ESt4lessIS5_ESaIS8_EE4findERS7_@Base 6.2.0
 _ZNSt10_HashtableINSt7__cxx1112basic_stringIcSt11char_traitsIcESaIcEEES5_SaIS5_ENSt8__detail9_IdentityESt8equal_toIS5_ESt4hashIS5_ENS7_18_Mod_range_hashingENS7_20_Default_ranged_hashENS7_20_Prime_rehash_policyENS7_17_Hashtable_traitsILb1ELb1ELb1EEEE18_M_assign_elementsIRKSI_ZNSI_aSESL_EUlRKNS7_17_ReuseOrAllocNodeISaINS7_10_Hash_nodeIS5_Lb1EEEEEEPKSO_E0_EEvOT_RKT0_@Base 6.2.2
 (optional=templinst)_ZNSt10_HashtableINSt7__cxx1112basic_stringIcSt11char_traitsIcESaIcEEES5_SaIS5_ENSt8__detail9_IdentityESt8equal_toIS5_ESt4hashIS5_ENS7_18_Mod_range_hashingENS7_20_Default_ranged_hashENS7_20_Prime_rehash_policyENS7_17_Hashtable_traitsILb1ELb1ELb1EEEE4findERKS5_@Base 6.2.0
 (optional=templinst)_ZNSt10_HashtableINSt7__cxx1112basic_stringIcSt11char_traitsIcESaIcEEES5_SaIS5_ENSt8__detail9_IdentityESt8equal_toIS5_ESt4hashIS5_ENS7_18_Mod_range_hashingENS7_20_Default_ranged_hashENS7_20_Prime_rehash_policyENS7_17_Hashtable_traitsILb1ELb1ELb1EEEE5clearEv@Base 6.2.0
 _ZNSt10_HashtableINSt7__cxx1112basic_stringIcSt11char_traitsIcESaIcEEES5_SaIS5_ENSt8__detail9_IdentityESt8equal_toIS5_ESt4hashIS5_ENS7_18_Mod_range_hashingENS7_20_Default_ranged_hashENS7_20_Prime_rehash_policyENS7_17_Hashtable_traitsILb1ELb1ELb1EEEE9_M_assignIZNSI_18_M_assign_elementsIRKSI_ZNSI_aSESM_EUlRKNS7_17_ReuseOrAllocNodeISaINS7_10_Hash_nodeIS5_Lb1EEEEEEPKSP_E0_EEvOT_RKT0_EUlPSP_E_EEvSM_RKSX_@Base 6.2.2
 _ZNSt10_HashtableINSt7__cxx1112basic_stringIcSt11char_traitsIcESaIcEEES5_SaIS5_ENSt8__detail9_IdentityESt8equal_toIS5_ESt4hashIS5_ENS7_18_Mod_range_hashingENS7_20_Default_ranged_hashENS7_20_Prime_rehash_policyENS7_17_Hashtable_traitsILb1ELb1ELb1EEEE9_M_assignIZNSI_C4ERKSI_EUlPKNS7_10_Hash_nodeIS5_Lb1EEEE_EEvSL_RKT_@Base 6.2.2
 _ZNSt10_HashtableINSt7__cxx1112basic_stringIcSt11char_traitsIcESaIcEEES5_SaIS5_ENSt8__detail9_IdentityESt8equal_toIS5_ESt4hashIS5_ENS7_18_Mod_range_hashingENS7_20_Default_ranged_hashENS7_20_Prime_rehash_policyENS7_17_Hashtable_traitsILb1ELb1ELb1EEEE9_M_insertIRKS5_NS7_10_AllocNodeISaINS7_10_Hash_nodeIS5_Lb1EEEEEEEESt4pairINS7_14_Node_iteratorIS5_Lb1ELb1EEEbEOT_RKT0_St17integral_constantIbLb1EEm@Base 6.2.2
 (optional=templinst)_ZNSt10_HashtableINSt7__cxx1112basic_stringIcSt11char_traitsIcESaIcEEES5_SaIS5_ENSt8__detail9_IdentityESt8equal_toIS5_ESt4hashIS5_ENS7_18_Mod_range_hashingENS7_20_Default_ranged_hashENS7_20_Prime_rehash_policyENS7_17_Hashtable_traitsILb1ELb1ELb1EEEE9_M_rehashEmRKm@Base 6.2.0
 _ZNSt10_HashtableINSt7__cxx1112basic_stringIcSt11char_traitsIcESaIcEEES5_SaIS5_ENSt8__detail9_IdentityESt8equal_toIS5_ESt4hashIS5_ENS7_18_Mod_range_hashingENS7_20_Default_ranged_hashENS7_20_Prime_rehash_policyENS7_17_Hashtable_traitsILb1ELb1ELb1EEEEC1IPKS5_EET_SM_mRKSC_RKSD_RKSE_RKSA_RKS8_RKS6_@Base 6.2.2
 _ZNSt10_HashtableINSt7__cxx1112basic_stringIcSt11char_traitsIcESaIcEEES5_SaIS5_ENSt8__detail9_IdentityESt8equal_toIS5_ESt4hashIS5_ENS7_18_Mod_range_hashingENS7_20_Default_ranged_hashENS7_20_Prime_rehash_policyENS7_17_Hashtable_traitsILb1ELb1ELb1EEEEC2IPKS5_EET_SM_mRKSC_RKSD_RKSE_RKSA_RKS8_RKS6_@Base 6.2.2
 _ZNSt10_HashtableINSt7__cxx1112basic_stringIcSt11char_traitsIcESaIcEEES5_SaIS5_ENSt8__detail9_IdentityESt8equal_toIS5_ESt4hashIS5_ENS7_18_Mod_range_hashingENS7_20_Default_ranged_hashENS7_20_Prime_rehash_policyENS7_17_Hashtable_traitsILb1ELb1ELb1EEEED1Ev@Base 6.2.2
 _ZNSt10_HashtableINSt7__cxx1112basic_stringIcSt11char_traitsIcESaIcEEES5_SaIS5_ENSt8__detail9_IdentityESt8equal_toIS5_ESt4hashIS5_ENS7_18_Mod_range_hashingENS7_20_Default_ranged_hashENS7_20_Prime_rehash_policyENS7_17_Hashtable_traitsILb1ELb1ELb1EEEED2Ev@Base 6.2.2
 (optional=templinst)_ZNSt10_HashtableINSt7__cxx1112basic_stringIcSt11char_traitsIcESaIcEEESt4pairIKS5_St13unordered_setImSt4hashImESt8equal_toImESaImEEESaISF_ENSt8__detail10_Select1stESB_IS5_ES9_IS5_ENSH_18_Mod_range_hashingENSH_20_Default_ranged_hashENSH_20_Prime_rehash_policyENSH_17_Hashtable_traitsILb1ELb0ELb1EEEE5clearEv@Base 6.2.0
 (optional=templinst)_ZNSt10_HashtableINSt7__cxx1112basic_stringIcSt11char_traitsIcESaIcEEESt4pairIKS5_St13unordered_setImSt4hashImESt8equal_toImESaImEEESaISF_ENSt8__detail10_Select1stESB_IS5_ES9_IS5_ENSH_18_Mod_range_hashingENSH_20_Default_ranged_hashENSH_20_Prime_rehash_policyENSH_17_Hashtable_traitsILb1ELb0ELb1EEEE9_M_rehashEmRKm@Base 6.2.1
 _ZNSt10_HashtableINSt7__cxx1112basic_stringIcSt11char_traitsIcESaIcEEESt4pairIKS5_St13unordered_setImSt4hashImESt8equal_toImESaImEEESaISF_ENSt8__detail10_Select1stESB_IS5_ES9_IS5_ENSH_18_Mod_range_hashingENSH_20_Default_ranged_hashENSH_20_Prime_rehash_policyENSH_17_Hashtable_traitsILb1ELb0ELb1EEEED1Ev@Base 6.2.2
 _ZNSt10_HashtableINSt7__cxx1112basic_stringIcSt11char_traitsIcESaIcEEESt4pairIKS5_St13unordered_setImSt4hashImESt8equal_toImESaImEEESaISF_ENSt8__detail10_Select1stESB_IS5_ES9_IS5_ENSH_18_Mod_range_hashingENSH_20_Default_ranged_hashENSH_20_Prime_rehash_policyENSH_17_Hashtable_traitsILb1ELb0ELb1EEEED2Ev@Base 6.2.2
 _ZNSt10_HashtableINSt7__cxx1112basic_stringIcSt11char_traitsIcESaIcEEESt4pairIKS5_jESaIS8_ENSt8__detail10_Select1stESt8equal_toIS5_ESt4hashIS5_ENSA_18_Mod_range_hashingENSA_20_Default_ranged_hashENSA_20_Prime_rehash_policyENSA_17_Hashtable_traitsILb1ELb0ELb1EEEE13_M_rehash_auxEmSt17integral_constantIbLb1EE@Base 6.2.2
 _ZNSt10_HashtableIPKcSt4pairIKS1_jESaIS4_ENSt8__detail10_Select1stESt8equal_toIS1_ESt4hashIS1_ENS6_18_Mod_range_hashingENS6_20_Default_ranged_hashENS6_20_Prime_rehash_policyENS6_17_Hashtable_traitsILb0ELb0ELb1EEEE21_M_insert_unique_nodeEmmPNS6_10_Hash_nodeIS4_Lb0EEEm@Base 6.2.2
 _ZNSt10_HashtableIiSt4pairIKiSt6vectorIiSaIiEEESaIS5_ENSt8__detail10_Select1stESt8equal_toIiESt4hashIiENS7_18_Mod_range_hashingENS7_20_Default_ranged_hashENS7_20_Prime_rehash_policyENS7_17_Hashtable_traitsILb0ELb0ELb1EEEE21_M_insert_unique_nodeEmmPNS7_10_Hash_nodeIS5_Lb0EEEm@Base 6.2.2
 _ZNSt10_HashtableIiSt4pairIKiSt6vectorIiSaIiEEESaIS5_ENSt8__detail10_Select1stESt8equal_toIiESt4hashIiENS7_18_Mod_range_hashingENS7_20_Default_ranged_hashENS7_20_Prime_rehash_policyENS7_17_Hashtable_traitsILb0ELb0ELb1EEEED1Ev@Base 6.2.2
 _ZNSt10_HashtableIiSt4pairIKiSt6vectorIiSaIiEEESaIS5_ENSt8__detail10_Select1stESt8equal_toIiESt4hashIiENS7_18_Mod_range_hashingENS7_20_Default_ranged_hashENS7_20_Prime_rehash_policyENS7_17_Hashtable_traitsILb0ELb0ELb1EEEED2Ev@Base 6.2.2
 _ZNSt10_HashtableIiSt4pairIKiiESaIS2_ENSt8__detail10_Select1stESt8equal_toIiESt4hashIiENS4_18_Mod_range_hashingENS4_20_Default_ranged_hashENS4_20_Prime_rehash_policyENS4_17_Hashtable_traitsILb0ELb0ELb1EEEE21_M_insert_unique_nodeEmmPNS4_10_Hash_nodeIS2_Lb0EEEm@Base 6.2.2
 _ZNSt10_HashtableIiSt4pairIKiiESaIS2_ENSt8__detail10_Select1stESt8equal_toIiESt4hashIiENS4_18_Mod_range_hashingENS4_20_Default_ranged_hashENS4_20_Prime_rehash_policyENS4_17_Hashtable_traitsILb0ELb0ELb1EEEE5clearEv@Base 6.2.2
 _ZNSt10_HashtableIiSt4pairIKijESaIS2_ENSt8__detail10_Select1stESt8equal_toIiESt4hashIiENS4_18_Mod_range_hashingENS4_20_Default_ranged_hashENS4_20_Prime_rehash_policyENS4_17_Hashtable_traitsILb0ELb0ELb1EEEE21_M_insert_unique_nodeEmmPNS4_10_Hash_nodeIS2_Lb0EEEm@Base 6.2.2
 _ZNSt10_HashtableIiiSaIiENSt8__detail9_IdentityESt8equal_toIiESt4hashIiENS1_18_Mod_range_hashingENS1_20_Default_ranged_hashENS1_20_Prime_rehash_policyENS1_17_Hashtable_traitsILb0ELb1ELb1EEEE21_M_insert_unique_nodeEmmPNS1_10_Hash_nodeIiLb0EEEm@Base 6.2.2
 (optional=templinst)_ZNSt10_HashtableIjSt4pairIKjNSt7__cxx1112basic_stringIcSt11char_traitsIcESaIcEEEESaIS8_ENSt8__detail10_Select1stESt8equal_toIjESt4hashIjENSA_18_Mod_range_hashingENSA_20_Default_ranged_hashENSA_20_Prime_rehash_policyENSA_17_Hashtable_traitsILb0ELb0ELb1EEEE21_M_insert_unique_nodeEmmPNSA_10_Hash_nodeIS8_Lb0EEEm@Base 6.2.1
 (optional=templinst)_ZNSt10_HashtableIjSt4pairIKjNSt7__cxx1112basic_stringIcSt11char_traitsIcESaIcEEEESaIS8_ENSt8__detail10_Select1stESt8equal_toIjESt4hashIjENSA_18_Mod_range_hashingENSA_20_Default_ranged_hashENSA_20_Prime_rehash_policyENSA_17_Hashtable_traitsILb0ELb0ELb1EEEE5clearEv@Base 6.2.0
 (optional=templinst)_ZNSt10_HashtableIjSt4pairIKjNSt7__cxx1112basic_stringIcSt11char_traitsIcESaIcEEEESaIS8_ENSt8__detail10_Select1stESt8equal_toIjESt4hashIjENSA_18_Mod_range_hashingENSA_20_Default_ranged_hashENSA_20_Prime_rehash_policyENSA_17_Hashtable_traitsILb0ELb0ELb1EEEE9_M_rehashEmRKm@Base 6.2.1
 _ZNSt10_HashtableIjSt4pairIKjNSt7__cxx1112basic_stringIcSt11char_traitsIcESaIcEEEESaIS8_ENSt8__detail10_Select1stESt8equal_toIjESt4hashIjENSA_18_Mod_range_hashingENSA_20_Default_ranged_hashENSA_20_Prime_rehash_policyENSA_17_Hashtable_traitsILb0ELb0ELb1EEEED1Ev@Base 6.2.2
 _ZNSt10_HashtableIjSt4pairIKjNSt7__cxx1112basic_stringIcSt11char_traitsIcESaIcEEEESaIS8_ENSt8__detail10_Select1stESt8equal_toIjESt4hashIjENSA_18_Mod_range_hashingENSA_20_Default_ranged_hashENSA_20_Prime_rehash_policyENSA_17_Hashtable_traitsILb0ELb0ELb1EEEED2Ev@Base 6.2.2
 _ZNSt10_HashtableIjSt4pairIKjS0_IjjEESaIS3_ENSt8__detail10_Select1stESt8equal_toIjESt4hashIjENS5_18_Mod_range_hashingENS5_20_Default_ranged_hashENS5_20_Prime_rehash_policyENS5_17_Hashtable_traitsILb0ELb0ELb1EEEE21_M_insert_unique_nodeEmmPNS5_10_Hash_nodeIS3_Lb0EEEm@Base 6.2.2
 _ZNSt10_HashtableIjSt4pairIKjS0_IjjEESaIS3_ENSt8__detail10_Select1stESt8equal_toIjESt4hashIjENS5_18_Mod_range_hashingENS5_20_Default_ranged_hashENS5_20_Prime_rehash_policyENS5_17_Hashtable_traitsILb0ELb0ELb1EEEE5clearEv@Base 6.2.2
 (optional=templinst)_ZNSt10_HashtableIjSt4pairIKjSt13unordered_setIjSt4hashIjESt8equal_toIjESaIjEEESaIS9_ENSt8__detail10_Select1stES6_S4_NSB_18_Mod_range_hashingENSB_20_Default_ranged_hashENSB_20_Prime_rehash_policyENSB_17_Hashtable_traitsILb0ELb0ELb1EEEE21_M_insert_unique_nodeEmmPNSB_10_Hash_nodeIS9_Lb0EEEm@Base 6.2.1
 (optional=templinst)_ZNSt10_HashtableIjSt4pairIKjSt13unordered_setIjSt4hashIjESt8equal_toIjESaIjEEESaIS9_ENSt8__detail10_Select1stES6_S4_NSB_18_Mod_range_hashingENSB_20_Default_ranged_hashENSB_20_Prime_rehash_policyENSB_17_Hashtable_traitsILb0ELb0ELb1EEEE5clearEv@Base 6.2.0
 (optional=templinst)_ZNSt10_HashtableIjSt4pairIKjSt13unordered_setIjSt4hashIjESt8equal_toIjESaIjEEESaIS9_ENSt8__detail10_Select1stES6_S4_NSB_18_Mod_range_hashingENSB_20_Default_ranged_hashENSB_20_Prime_rehash_policyENSB_17_Hashtable_traitsILb0ELb0ELb1EEEE9_M_rehashEmRKm@Base 6.2.1
 _ZNSt10_HashtableIjSt4pairIKjSt13unordered_setIjSt4hashIjESt8equal_toIjESaIjEEESaIS9_ENSt8__detail10_Select1stES6_S4_NSB_18_Mod_range_hashingENSB_20_Default_ranged_hashENSB_20_Prime_rehash_policyENSB_17_Hashtable_traitsILb0ELb0ELb1EEEED1Ev@Base 6.2.2
 _ZNSt10_HashtableIjSt4pairIKjSt13unordered_setIjSt4hashIjESt8equal_toIjESaIjEEESaIS9_ENSt8__detail10_Select1stES6_S4_NSB_18_Mod_range_hashingENSB_20_Default_ranged_hashENSB_20_Prime_rehash_policyENSB_17_Hashtable_traitsILb0ELb0ELb1EEEED2Ev@Base 6.2.2
 (optional=templinst)_ZNSt10_HashtableIjSt4pairIKjSt3setIjSt4lessIjESaIjEEESaIS7_ENSt8__detail10_Select1stESt8equal_toIjESt4hashIjENS9_18_Mod_range_hashingENS9_20_Default_ranged_hashENS9_20_Prime_rehash_policyENS9_17_Hashtable_traitsILb0ELb0ELb1EEEE9_M_rehashEmRKm@Base 6.2.1
 _ZNSt10_HashtableIjSt4pairIKjSt3setIjSt4lessIjESaIjEEESaIS7_ENSt8__detail10_Select1stESt8equal_toIjESt4hashIjENS9_18_Mod_range_hashingENS9_20_Default_ranged_hashENS9_20_Prime_rehash_policyENS9_17_Hashtable_traitsILb0ELb0ELb1EEEED1Ev@Base 6.2.2
 _ZNSt10_HashtableIjSt4pairIKjSt3setIjSt4lessIjESaIjEEESaIS7_ENSt8__detail10_Select1stESt8equal_toIjESt4hashIjENS9_18_Mod_range_hashingENS9_20_Default_ranged_hashENS9_20_Prime_rehash_policyENS9_17_Hashtable_traitsILb0ELb0ELb1EEEED2Ev@Base 6.2.2
 (optional=templinst)_ZNSt10_HashtableIjSt4pairIKjbESaIS2_ENSt8__detail10_Select1stESt8equal_toIjESt4hashIjENS4_18_Mod_range_hashingENS4_20_Default_ranged_hashENS4_20_Prime_rehash_policyENS4_17_Hashtable_traitsILb0ELb0ELb1EEEE21_M_insert_unique_nodeEmmPNS4_10_Hash_nodeIS2_Lb0EEEm@Base 6.2.1
 (optional=templinst)_ZNSt10_HashtableIjSt4pairIKjbESaIS2_ENSt8__detail10_Select1stESt8equal_toIjESt4hashIjENS4_18_Mod_range_hashingENS4_20_Default_ranged_hashENS4_20_Prime_rehash_policyENS4_17_Hashtable_traitsILb0ELb0ELb1EEEE9_M_rehashEmRKm@Base 6.2.1
 _ZNSt10_HashtableIjSt4pairIKjbESaIS2_ENSt8__detail10_Select1stESt8equal_toIjESt4hashIjENS4_18_Mod_range_hashingENS4_20_Default_ranged_hashENS4_20_Prime_rehash_policyENS4_17_Hashtable_traitsILb0ELb0ELb1EEEED1Ev@Base 6.2.2
 _ZNSt10_HashtableIjSt4pairIKjbESaIS2_ENSt8__detail10_Select1stESt8equal_toIjESt4hashIjENS4_18_Mod_range_hashingENS4_20_Default_ranged_hashENS4_20_Prime_rehash_policyENS4_17_Hashtable_traitsILb0ELb0ELb1EEEED2Ev@Base 6.2.2
 _ZNSt10_HashtableIjSt4pairIKjiESaIS2_ENSt8__detail10_Select1stESt8equal_toIjESt4hashIjENS4_18_Mod_range_hashingENS4_20_Default_ranged_hashENS4_20_Prime_rehash_policyENS4_17_Hashtable_traitsILb0ELb0ELb1EEEE21_M_insert_unique_nodeEmmPNS4_10_Hash_nodeIS2_Lb0EEEm@Base 6.2.2
 _ZNSt10_HashtableIjSt4pairIKjiESaIS2_ENSt8__detail10_Select1stESt8equal_toIjESt4hashIjENS4_18_Mod_range_hashingENS4_20_Default_ranged_hashENS4_20_Prime_rehash_policyENS4_17_Hashtable_traitsILb0ELb0ELb1EEEE5clearEv@Base 6.2.2
 (optional=templinst)_ZNSt10_HashtableIjSt4pairIKjiESaIS2_ENSt8__detail10_Select1stESt8equal_toIjESt4hashIjENS4_18_Mod_range_hashingENS4_20_Default_ranged_hashENS4_20_Prime_rehash_policyENS4_17_Hashtable_traitsILb0ELb0ELb1EEEE5eraseENS4_20_Node_const_iteratorIS2_Lb0ELb0EEE@Base 6.2.0
 _ZNSt10_HashtableIjSt4pairIKjiESaIS2_ENSt8__detail10_Select1stESt8equal_toIjESt4hashIjENS4_18_Mod_range_hashingENS4_20_Default_ranged_hashENS4_20_Prime_rehash_policyENS4_17_Hashtable_traitsILb0ELb0ELb1EEEED1Ev@Base 6.2.2
 _ZNSt10_HashtableIjSt4pairIKjiESaIS2_ENSt8__detail10_Select1stESt8equal_toIjESt4hashIjENS4_18_Mod_range_hashingENS4_20_Default_ranged_hashENS4_20_Prime_rehash_policyENS4_17_Hashtable_traitsILb0ELb0ELb1EEEED2Ev@Base 6.2.2
 _ZNSt10_HashtableIjSt4pairIKjjESaIS2_ENSt8__detail10_Select1stESt8equal_toIjESt4hashIjENS4_18_Mod_range_hashingENS4_20_Default_ranged_hashENS4_20_Prime_rehash_policyENS4_17_Hashtable_traitsILb0ELb0ELb1EEEE18_M_assign_elementsIRKSF_ZNSF_aSESI_EUlRKNS4_17_ReuseOrAllocNodeISaINS4_10_Hash_nodeIS2_Lb0EEEEEEPKSL_E0_EEvOT_RKT0_@Base 6.2.2
 (optional=templinst)_ZNSt10_HashtableIjSt4pairIKjjESaIS2_ENSt8__detail10_Select1stESt8equal_toIjESt4hashIjENS4_18_Mod_range_hashingENS4_20_Default_ranged_hashENS4_20_Prime_rehash_policyENS4_17_Hashtable_traitsILb0ELb0ELb1EEEE21_M_insert_unique_nodeEmmPNS4_10_Hash_nodeIS2_Lb0EEEm@Base 6.2.1
 (optional=templinst)_ZNSt10_HashtableIjSt4pairIKjjESaIS2_ENSt8__detail10_Select1stESt8equal_toIjESt4hashIjENS4_18_Mod_range_hashingENS4_20_Default_ranged_hashENS4_20_Prime_rehash_policyENS4_17_Hashtable_traitsILb0ELb0ELb1EEEE5clearEv@Base 6.2.0
 _ZNSt10_HashtableIjSt4pairIKjjESaIS2_ENSt8__detail10_Select1stESt8equal_toIjESt4hashIjENS4_18_Mod_range_hashingENS4_20_Default_ranged_hashENS4_20_Prime_rehash_policyENS4_17_Hashtable_traitsILb0ELb0ELb1EEEE8_M_eraseESt17integral_constantIbLb1EERS1_@Base 6.2.2
 _ZNSt10_HashtableIjSt4pairIKjjESaIS2_ENSt8__detail10_Select1stESt8equal_toIjESt4hashIjENS4_18_Mod_range_hashingENS4_20_Default_ranged_hashENS4_20_Prime_rehash_policyENS4_17_Hashtable_traitsILb0ELb0ELb1EEEE9_M_assignIZNSF_18_M_assign_elementsIRKSF_ZNSF_aSESJ_EUlRKNS4_17_ReuseOrAllocNodeISaINS4_10_Hash_nodeIS2_Lb0EEEEEEPKSM_E0_EEvOT_RKT0_EUlPSM_E_EEvSJ_RKSU_@Base 6.2.2
 _ZNSt10_HashtableIjSt4pairIKjjESaIS2_ENSt8__detail10_Select1stESt8equal_toIjESt4hashIjENS4_18_Mod_range_hashingENS4_20_Default_ranged_hashENS4_20_Prime_rehash_policyENS4_17_Hashtable_traitsILb0ELb0ELb1EEEE9_M_assignIZNSF_C4ERKSF_EUlPKNS4_10_Hash_nodeIS2_Lb0EEEE_EEvSI_RKT_@Base 6.2.2
 (optional=templinst)_ZNSt10_HashtableIjSt4pairIKjjESaIS2_ENSt8__detail10_Select1stESt8equal_toIjESt4hashIjENS4_18_Mod_range_hashingENS4_20_Default_ranged_hashENS4_20_Prime_rehash_policyENS4_17_Hashtable_traitsILb0ELb0ELb1EEEE9_M_rehashEmRKm@Base 6.2.0
 _ZNSt10_HashtableIjSt4pairIKjjESaIS2_ENSt8__detail10_Select1stESt8equal_toIjESt4hashIjENS4_18_Mod_range_hashingENS4_20_Default_ranged_hashENS4_20_Prime_rehash_policyENS4_17_Hashtable_traitsILb0ELb0ELb1EEEEC1EOSF_@Base 6.2.2
 _ZNSt10_HashtableIjSt4pairIKjjESaIS2_ENSt8__detail10_Select1stESt8equal_toIjESt4hashIjENS4_18_Mod_range_hashingENS4_20_Default_ranged_hashENS4_20_Prime_rehash_policyENS4_17_Hashtable_traitsILb0ELb0ELb1EEEEC2EOSF_@Base 6.2.2
 _ZNSt10_HashtableIjSt4pairIKjjESaIS2_ENSt8__detail10_Select1stESt8equal_toIjESt4hashIjENS4_18_Mod_range_hashingENS4_20_Default_ranged_hashENS4_20_Prime_rehash_policyENS4_17_Hashtable_traitsILb0ELb0ELb1EEEED1Ev@Base 6.2.2
 _ZNSt10_HashtableIjSt4pairIKjjESaIS2_ENSt8__detail10_Select1stESt8equal_toIjESt4hashIjENS4_18_Mod_range_hashingENS4_20_Default_ranged_hashENS4_20_Prime_rehash_policyENS4_17_Hashtable_traitsILb0ELb0ELb1EEEED2Ev@Base 6.2.2
 _ZNSt10_HashtableIjjSaIjENSt8__detail9_IdentityESt8equal_toIjESt4hashIjENS1_18_Mod_range_hashingENS1_20_Default_ranged_hashENS1_20_Prime_rehash_policyENS1_17_Hashtable_traitsILb0ELb1ELb1EEEE14_M_move_assignEOSC_St17integral_constantIbLb1EE@Base 6.2.2
 _ZNSt10_HashtableIjjSaIjENSt8__detail9_IdentityESt8equal_toIjESt4hashIjENS1_18_Mod_range_hashingENS1_20_Default_ranged_hashENS1_20_Prime_rehash_policyENS1_17_Hashtable_traitsILb0ELb1ELb1EEEE18_M_assign_elementsIRKSC_ZNSC_aSESF_EUlRKNS1_17_ReuseOrAllocNodeISaINS1_10_Hash_nodeIjLb0EEEEEEPKSI_E0_EEvOT_RKT0_@Base 6.2.2
 (optional=templinst)_ZNSt10_HashtableIjjSaIjENSt8__detail9_IdentityESt8equal_toIjESt4hashIjENS1_18_Mod_range_hashingENS1_20_Default_ranged_hashENS1_20_Prime_rehash_policyENS1_17_Hashtable_traitsILb0ELb1ELb1EEEE21_M_insert_unique_nodeEmmPNS1_10_Hash_nodeIjLb0EEEm@Base 6.2.1
 (optional=templinst)_ZNSt10_HashtableIjjSaIjENSt8__detail9_IdentityESt8equal_toIjESt4hashIjENS1_18_Mod_range_hashingENS1_20_Default_ranged_hashENS1_20_Prime_rehash_policyENS1_17_Hashtable_traitsILb0ELb1ELb1EEEE5clearEv@Base 6.2.0
 (optional=templinst)_ZNSt10_HashtableIjjSaIjENSt8__detail9_IdentityESt8equal_toIjESt4hashIjENS1_18_Mod_range_hashingENS1_20_Default_ranged_hashENS1_20_Prime_rehash_policyENS1_17_Hashtable_traitsILb0ELb1ELb1EEEE8_M_eraseESt17integral_constantIbLb1EERKj@Base 6.2.0
 _ZNSt10_HashtableIjjSaIjENSt8__detail9_IdentityESt8equal_toIjESt4hashIjENS1_18_Mod_range_hashingENS1_20_Default_ranged_hashENS1_20_Prime_rehash_policyENS1_17_Hashtable_traitsILb0ELb1ELb1EEEE9_M_assignIZNSC_18_M_assign_elementsIRKSC_ZNSC_aSESG_EUlRKNS1_17_ReuseOrAllocNodeISaINS1_10_Hash_nodeIjLb0EEEEEEPKSJ_E0_EEvOT_RKT0_EUlPSJ_E_EEvSG_RKSR_@Base 6.2.2
 _ZNSt10_HashtableIjjSaIjENSt8__detail9_IdentityESt8equal_toIjESt4hashIjENS1_18_Mod_range_hashingENS1_20_Default_ranged_hashENS1_20_Prime_rehash_policyENS1_17_Hashtable_traitsILb0ELb1ELb1EEEE9_M_assignIZNSC_C4ERKSC_EUlPKNS1_10_Hash_nodeIjLb0EEEE_EEvSF_RKT_@Base 6.2.2
 _ZNSt10_HashtableIjjSaIjENSt8__detail9_IdentityESt8equal_toIjESt4hashIjENS1_18_Mod_range_hashingENS1_20_Default_ranged_hashENS1_20_Prime_rehash_policyENS1_17_Hashtable_traitsILb0ELb1ELb1EEEE9_M_insertIRKjNS1_10_AllocNodeISaINS1_10_Hash_nodeIjLb0EEEEEEEESt4pairINS1_14_Node_iteratorIjLb1ELb0EEEbEOT_RKT0_St17integral_constantIbLb1EEm@Base 6.2.2
 _ZNSt10_HashtableIjjSaIjENSt8__detail9_IdentityESt8equal_toIjESt4hashIjENS1_18_Mod_range_hashingENS1_20_Default_ranged_hashENS1_20_Prime_rehash_policyENS1_17_Hashtable_traitsILb0ELb1ELb1EEEE9_M_insertIjNS1_10_AllocNodeISaINS1_10_Hash_nodeIjLb0EEEEEEEESt4pairINS1_14_Node_iteratorIjLb1ELb0EEEbEOT_RKT0_St17integral_constantIbLb1EEm@Base 6.2.2
 (optional=templinst)_ZNSt10_HashtableIjjSaIjENSt8__detail9_IdentityESt8equal_toIjESt4hashIjENS1_18_Mod_range_hashingENS1_20_Default_ranged_hashENS1_20_Prime_rehash_policyENS1_17_Hashtable_traitsILb0ELb1ELb1EEEE9_M_rehashEmRKm@Base 6.2.0
 _ZNSt10_HashtableIjjSaIjENSt8__detail9_IdentityESt8equal_toIjESt4hashIjENS1_18_Mod_range_hashingENS1_20_Default_ranged_hashENS1_20_Prime_rehash_policyENS1_17_Hashtable_traitsILb0ELb1ELb1EEEEC1EOSC_@Base 6.2.2
 _ZNSt10_HashtableIjjSaIjENSt8__detail9_IdentityESt8equal_toIjESt4hashIjENS1_18_Mod_range_hashingENS1_20_Default_ranged_hashENS1_20_Prime_rehash_policyENS1_17_Hashtable_traitsILb0ELb1ELb1EEEEC2EOSC_@Base 6.2.2
 _ZNSt10_HashtableIjjSaIjENSt8__detail9_IdentityESt8equal_toIjESt4hashIjENS1_18_Mod_range_hashingENS1_20_Default_ranged_hashENS1_20_Prime_rehash_policyENS1_17_Hashtable_traitsILb0ELb1ELb1EEEED1Ev@Base 6.2.2
 _ZNSt10_HashtableIjjSaIjENSt8__detail9_IdentityESt8equal_toIjESt4hashIjENS1_18_Mod_range_hashingENS1_20_Default_ranged_hashENS1_20_Prime_rehash_policyENS1_17_Hashtable_traitsILb0ELb1ELb1EEEED2Ev@Base 6.2.2
 _ZNSt10_HashtableImmSaImENSt8__detail9_IdentityESt8equal_toImESt4hashImENS1_18_Mod_range_hashingENS1_20_Default_ranged_hashENS1_20_Prime_rehash_policyENS1_17_Hashtable_traitsILb0ELb1ELb1EEEE9_M_insertIRKmNS1_10_AllocNodeISaINS1_10_Hash_nodeImLb0EEEEEEEESt4pairINS1_14_Node_iteratorImLb1ELb0EEEbEOT_RKT0_St17integral_constantIbLb1EEm@Base 6.2.2
 (optional=templinst)_ZNSt10_HashtableImmSaImENSt8__detail9_IdentityESt8equal_toImESt4hashImENS1_18_Mod_range_hashingENS1_20_Default_ranged_hashENS1_20_Prime_rehash_policyENS1_17_Hashtable_traitsILb0ELb1ELb1EEEE9_M_rehashEmRKm@Base 6.2.1
 _ZNSt10_HashtableImmSaImENSt8__detail9_IdentityESt8equal_toImESt4hashImENS1_18_Mod_range_hashingENS1_20_Default_ranged_hashENS1_20_Prime_rehash_policyENS1_17_Hashtable_traitsILb0ELb1ELb1EEEED1Ev@Base 6.2.2
 _ZNSt10_HashtableImmSaImENSt8__detail9_IdentityESt8equal_toImESt4hashImENS1_18_Mod_range_hashingENS1_20_Default_ranged_hashENS1_20_Prime_rehash_policyENS1_17_Hashtable_traitsILb0ELb1ELb1EEEED2Ev@Base 6.2.2
 _ZNSt14_Function_base13_Base_managerISt5_BindIFM20QSpirvShaderRemapperFvRKNSt7__cxx1112basic_stringIcSt11char_traitsIcESaIcEEEEPS2_St12_PlaceholderILi1EEEEE10_M_managerERSt9_Any_dataRKSJ_St18_Manager_operation@Base 6.2.2
 _ZNSt17_Function_handlerIFvRKNSt7__cxx1112basic_stringIcSt11char_traitsIcESaIcEEEESt5_BindIFM20QSpirvShaderRemapperFvS7_EPSA_St12_PlaceholderILi1EEEEE9_M_invokeERKSt9_Any_dataS7_@Base 6.2.2
 _ZNSt3_V28__rotateIPjEET_S2_S2_S2_St26random_access_iterator_tag@Base 6.2.2
 _ZNSt5dequeISt13unordered_mapIjjSt4hashIjESt8equal_toIjESaISt4pairIKjjEEESaIS9_EE15_M_pop_back_auxEv@Base 6.2.2
 _ZNSt5dequeISt13unordered_mapIjjSt4hashIjESt8equal_toIjESaISt4pairIKjjEEESaIS9_EED1Ev@Base 6.2.2
 _ZNSt5dequeISt13unordered_mapIjjSt4hashIjESt8equal_toIjESaISt4pairIKjjEEESaIS9_EED2Ev@Base 6.2.2
 (optional=templinst)_ZNSt5dequeIbSaIbEE12emplace_backIJbEEERbDpOT_@Base 6.2.0
 _ZNSt6vectorIN3spv10DecorationESaIS1_EE12emplace_backIJS1_EEERS1_DpOT_@Base 6.2.2
 (optional=templinst)_ZNSt6vectorIN3spv10DecorationESaIS1_EE17_M_realloc_insertIJRKS1_EEEvN9__gnu_cxx17__normal_iteratorIPS1_S3_EEDpOT_@Base 6.2.0
 (optional=templinst)_ZNSt6vectorIN3spv10DecorationESaIS1_EE17_M_realloc_insertIJS1_EEEvN9__gnu_cxx17__normal_iteratorIPS1_S3_EEDpOT_@Base 6.2.0
 (optional=templinst)_ZNSt6vectorIN3spv12OperandClassESaIS1_EE17_M_realloc_insertIJRKS1_EEEvN9__gnu_cxx17__normal_iteratorIPS1_S3_EEDpOT_@Base 6.2.0
 _ZNSt6vectorINSt7__cxx1112basic_stringIcSt11char_traitsIcESaIcEEESaIS5_EE15_M_range_insertIN9__gnu_cxx17__normal_iteratorIPS5_S7_EEEEvSC_T_SD_St20forward_iterator_tag@Base 6.2.2
 (optional=templinst)_ZNSt6vectorINSt7__cxx1112basic_stringIcSt11char_traitsIcESaIcEEESaIS5_EE17_M_realloc_insertIJRKS5_EEEvN9__gnu_cxx17__normal_iteratorIPS5_S7_EEDpOT_@Base 6.2.0
 (optional=templinst)_ZNSt6vectorINSt7__cxx1112basic_stringIcSt11char_traitsIcESaIcEEESaIS5_EE17_M_realloc_insertIJS5_EEEvN9__gnu_cxx17__normal_iteratorIPS5_S7_EEDpOT_@Base 6.2.0
 _ZNSt6vectorINSt7__cxx1112basic_stringIcSt11char_traitsIcESaIcEEESaIS5_EEaSERKS7_@Base 6.2.2
 (optional=templinst)_ZNSt6vectorIPKcSaIS1_EE17_M_realloc_insertIJRKS1_EEEvN9__gnu_cxx17__normal_iteratorIPS1_S3_EEDpOT_@Base 6.2.0
 (optional=templinst)_ZNSt6vectorIPKcSaIS1_EE17_M_realloc_insertIJS1_EEEvN9__gnu_cxx17__normal_iteratorIPS1_S3_EEDpOT_@Base 6.2.0
 (optional=templinst)_ZNSt6vectorIS_IN3spv10DecorationESaIS1_EESaIS3_EE17_M_default_appendEm@Base 6.2.0
 (optional=templinst)_ZNSt6vectorISt4pairIjjESaIS1_EE17_M_realloc_insertIJS1_EEEvN9__gnu_cxx17__normal_iteratorIPS1_S3_EEDpOT_@Base 6.2.0
 _ZNSt6vectorIbSaIbEE13_M_insert_auxESt13_Bit_iteratorb@Base 6.2.2
 _ZNSt6vectorIbSaIbEE9push_backEb@Base 6.2.2
 (optional=templinst)_ZNSt6vectorIiSaIiEE17_M_default_appendEm@Base 6.2.0
 (optional=templinst)_ZNSt6vectorIiSaIiEE17_M_realloc_insertIJRKiEEEvN9__gnu_cxx17__normal_iteratorIPiS1_EEDpOT_@Base 6.2.0
 (optional=templinst)_ZNSt6vectorIiSaIiEE17_M_realloc_insertIJiEEEvN9__gnu_cxx17__normal_iteratorIPiS1_EEDpOT_@Base 6.2.0
 (optional=templinst)_ZNSt6vectorIjSaIjEE12emplace_backIJjEEERjDpOT_@Base 6.2.0
 (optional=templinst)_ZNSt6vectorIjSaIjEE14_M_fill_insertEN9__gnu_cxx17__normal_iteratorIPjS1_EEmRKj@Base 6.2.0
 (optional=templinst)_ZNSt6vectorIjSaIjEE17_M_default_appendEm@Base 6.2.0
 (optional=templinst)_ZNSt6vectorIjSaIjEE17_M_realloc_insertIJRKjEEEvN9__gnu_cxx17__normal_iteratorIPjS1_EEDpOT_@Base 6.2.0
 _ZNSt6vectorIjSaIjEE9push_backERKj@Base 6.2.2
 _ZNSt6vectorIjSaIjEEaSERKS1_@Base 6.2.2
 (optional=templinst)_ZNSt6vectorImSaImEE14_M_fill_insertEN9__gnu_cxx17__normal_iteratorIPmS1_EEmRKm@Base 6.2.0
 _ZNSt7__cxx1112basic_stringIcSt11char_traitsIcESaIcEE12_M_constructIPKcEEvT_S8_St20forward_iterator_tag@Base 6.2.2
 _ZNSt7__cxx1112basic_stringIcSt11char_traitsIcESaIcEE12_M_constructIPcEEvT_S7_St20forward_iterator_tag@Base 6.2.2
 _ZNSt7__cxx1112basic_stringIcSt11char_traitsIcESaIcEEC1IS3_EEPKcRKS3_@Base 6.2.2
 _ZNSt7__cxx1112basic_stringIcSt11char_traitsIcESaIcEEC2IS3_EEPKcRKS3_@Base 6.2.2
 (optional=templinst)_ZNSt8_Rb_treeIN11spirv_cross11CompilerMSL11SPVFuncImplES2_St9_IdentityIS2_ESt4lessIS2_ESaIS2_EE16_M_insert_uniqueIRKS2_EESt4pairISt17_Rb_tree_iteratorIS2_EbEOT_@Base 6.2.0
 _ZNSt8_Rb_treeIN11spirv_cross11CompilerMSL11SPVFuncImplES2_St9_IdentityIS2_ESt4lessIS2_ESaIS2_EE16_M_insert_uniqueIS2_EESt4pairISt17_Rb_tree_iteratorIS2_EbEOT_@Base 6.2.2
 (optional=templinst)_ZNSt8_Rb_treeIN11spirv_cross11CompilerMSL11SPVFuncImplES2_St9_IdentityIS2_ESt4lessIS2_ESaIS2_EE24_M_get_insert_unique_posERKS2_@Base 6.2.0
 _ZNSt8_Rb_treeIN11spirv_cross11CompilerMSL11SPVFuncImplES2_St9_IdentityIS2_ESt4lessIS2_ESaIS2_EE8_M_eraseEPSt13_Rb_tree_nodeIS2_E@Base 6.2.2
 _ZNSt8_Rb_treeIN3spv10CapabilityES1_St9_IdentityIS1_ESt4lessIS1_ESaIS1_EE16_M_insert_uniqueIRKS1_EESt4pairISt17_Rb_tree_iteratorIS1_EbEOT_@Base 6.2.2
 _ZNSt8_Rb_treeIN3spv10CapabilityES1_St9_IdentityIS1_ESt4lessIS1_ESaIS1_EE8_M_eraseEPSt13_Rb_tree_nodeIS1_E@Base 6.2.2
 (optional=templinst)_ZNSt8_Rb_treeINSt7__cxx1112basic_stringIcSt11char_traitsIcESaIcEEES5_St9_IdentityIS5_ESt4lessIS5_ESaIS5_EE11equal_rangeERKS5_@Base 6.2.0
 (optional=templinst)_ZNSt8_Rb_treeINSt7__cxx1112basic_stringIcSt11char_traitsIcESaIcEEES5_St9_IdentityIS5_ESt4lessIS5_ESaIS5_EE16_M_insert_uniqueIRKS5_EESt4pairISt17_Rb_tree_iteratorIS5_EbEOT_@Base 6.2.0
 _ZNSt8_Rb_treeINSt7__cxx1112basic_stringIcSt11char_traitsIcESaIcEEES5_St9_IdentityIS5_ESt4lessIS5_ESaIS5_EE16_M_insert_uniqueIS5_EESt4pairISt17_Rb_tree_iteratorIS5_EbEOT_@Base 6.2.2
 (optional=templinst)_ZNSt8_Rb_treeINSt7__cxx1112basic_stringIcSt11char_traitsIcESaIcEEES5_St9_IdentityIS5_ESt4lessIS5_ESaIS5_EE24_M_get_insert_unique_posERKS5_@Base 6.2.0
 (optional=templinst)_ZNSt8_Rb_treeINSt7__cxx1112basic_stringIcSt11char_traitsIcESaIcEEES5_St9_IdentityIS5_ESt4lessIS5_ESaIS5_EE29_M_get_insert_hint_unique_posESt23_Rb_tree_const_iteratorIS5_ERKS5_@Base 6.2.0
 _ZNSt8_Rb_treeINSt7__cxx1112basic_stringIcSt11char_traitsIcESaIcEEES5_St9_IdentityIS5_ESt4lessIS5_ESaIS5_EE7_M_copyINSB_20_Reuse_or_alloc_nodeEEEPSt13_Rb_tree_nodeIS5_EPKSF_PSt18_Rb_tree_node_baseRT_@Base 6.2.2
 _ZNSt8_Rb_treeINSt7__cxx1112basic_stringIcSt11char_traitsIcESaIcEEES5_St9_IdentityIS5_ESt4lessIS5_ESaIS5_EE8_M_eraseEPSt13_Rb_tree_nodeIS5_E@Base 6.2.2
 _ZNSt8_Rb_treeINSt7__cxx1112basic_stringIcSt11char_traitsIcESaIcEEESt4pairIKS5_S5_ESt10_Select1stIS8_ESt4lessIS5_ESaIS8_EE22_M_emplace_hint_uniqueIJRKSt21piecewise_construct_tSt5tupleIJOS5_EESJ_IJEEEEESt17_Rb_tree_iteratorIS8_ESt23_Rb_tree_const_iteratorIS8_EDpOT_@Base 6.2.2
 (optional=templinst)_ZNSt8_Rb_treeINSt7__cxx1112basic_stringIcSt11char_traitsIcESaIcEEESt4pairIKS5_S5_ESt10_Select1stIS8_ESt4lessIS5_ESaIS8_EE24_M_get_insert_unique_posERS7_@Base 6.2.0
 (optional=templinst)_ZNSt8_Rb_treeINSt7__cxx1112basic_stringIcSt11char_traitsIcESaIcEEESt4pairIKS5_S5_ESt10_Select1stIS8_ESt4lessIS5_ESaIS8_EE29_M_get_insert_hint_unique_posESt23_Rb_tree_const_iteratorIS8_ERS7_@Base 6.2.0
 _ZNSt8_Rb_treeINSt7__cxx1112basic_stringIcSt11char_traitsIcESaIcEEESt4pairIKS5_S5_ESt10_Select1stIS8_ESt4lessIS5_ESaIS8_EE8_M_eraseEPSt13_Rb_tree_nodeIS8_E@Base 6.2.2
 _ZNSt8_Rb_treeINSt7__cxx1112basic_stringIcSt11char_traitsIcESaIcEEESt4pairIKS5_iESt10_Select1stIS8_ESt4lessIS5_ESaIS8_EE14_M_insert_nodeEPSt18_Rb_tree_node_baseSG_PSt13_Rb_tree_nodeIS8_E@Base 6.2.2
 (optional=templinst)_ZNSt8_Rb_treeINSt7__cxx1112basic_stringIcSt11char_traitsIcESaIcEEESt4pairIKS5_iESt10_Select1stIS8_ESt4lessIS5_ESaIS8_EE24_M_get_insert_unique_posERS7_@Base 6.2.0
 (optional=templinst)_ZNSt8_Rb_treeINSt7__cxx1112basic_stringIcSt11char_traitsIcESaIcEEESt4pairIKS5_iESt10_Select1stIS8_ESt4lessIS5_ESaIS8_EE29_M_get_insert_hint_unique_posESt23_Rb_tree_const_iteratorIS8_ERS7_@Base 6.2.0
 (optional=templinst)_ZNSt8_Rb_treeINSt7__cxx1112basic_stringIcSt11char_traitsIcESaIcEEESt4pairIKS5_iESt10_Select1stIS8_ESt4lessIS5_ESaIS8_EE4findERS7_@Base 6.2.0
 _ZNSt8_Rb_treeINSt7__cxx1112basic_stringIcSt11char_traitsIcESaIcEEESt4pairIKS5_iESt10_Select1stIS8_ESt4lessIS5_ESaIS8_EE8_M_eraseEPSt13_Rb_tree_nodeIS8_E@Base 6.2.2
 (optional=templinst)_ZNSt8_Rb_treeIiSt4pairIKiiESt10_Select1stIS2_ESt4lessIiESaIS2_EE24_M_get_insert_unique_posERS1_@Base 6.2.0
 (optional=templinst)_ZNSt8_Rb_treeIiSt4pairIKiiESt10_Select1stIS2_ESt4lessIiESaIS2_EE29_M_get_insert_hint_unique_posESt23_Rb_tree_const_iteratorIS2_ERS1_@Base 6.2.0
 _ZNSt8_Rb_treeIiSt4pairIKiiESt10_Select1stIS2_ESt4lessIiESaIS2_EE8_M_eraseEPSt13_Rb_tree_nodeIS2_E@Base 6.2.2
 _ZNSt8_Rb_treeIiiSt9_IdentityIiESt4lessIiESaIiEE16_M_insert_uniqueIRKiEESt4pairISt17_Rb_tree_iteratorIiEbEOT_@Base 6.2.2
 _ZNSt8_Rb_treeIiiSt9_IdentityIiESt4lessIiESaIiEE16_M_insert_uniqueIiEESt4pairISt17_Rb_tree_iteratorIiEbEOT_@Base 6.2.2
 _ZNSt8_Rb_treeIiiSt9_IdentityIiESt4lessIiESaIiEE8_M_eraseEPSt13_Rb_tree_nodeIiE@Base 6.2.2
 (optional=templinst)_ZNSt8_Rb_treeIjSt4pairIKjPKNSt7__cxx1112basic_stringIcSt11char_traitsIcESaIcEEEESt10_Select1stISA_ESt4lessIjESaISA_EE24_M_get_insert_unique_posERS1_@Base 6.2.0
 (optional=templinst)_ZNSt8_Rb_treeIjSt4pairIKjPKNSt7__cxx1112basic_stringIcSt11char_traitsIcESaIcEEEESt10_Select1stISA_ESt4lessIjESaISA_EE29_M_get_insert_hint_unique_posESt23_Rb_tree_const_iteratorISA_ERS1_@Base 6.2.0
 _ZNSt8_Rb_treeIjSt4pairIKjPKNSt7__cxx1112basic_stringIcSt11char_traitsIcESaIcEEEESt10_Select1stISA_ESt4lessIjESaISA_EE8_M_eraseEPSt13_Rb_tree_nodeISA_E@Base 6.2.2
 _ZNSt8_Rb_treeIjSt4pairIKjSt6vectorIjSaIjEEESt10_Select1stIS5_ESt4lessIjESaIS5_EE8_M_eraseEPSt13_Rb_tree_nodeIS5_E@Base 6.2.2
 _ZNSt8_Rb_treeIjjSt9_IdentityIjESt4lessIjESaIjEE16_M_insert_uniqueIRKjEESt4pairISt17_Rb_tree_iteratorIjEbEOT_@Base 6.2.2
 (optional=templinst)_ZNSt8_Rb_treeIjjSt9_IdentityIjESt4lessIjESaIjEE24_M_get_insert_unique_posERKj@Base 6.2.0
 (optional=templinst)_ZNSt8_Rb_treeIjjSt9_IdentityIjESt4lessIjESaIjEE29_M_get_insert_hint_unique_posESt23_Rb_tree_const_iteratorIjERKj@Base 6.2.0
 _ZNSt8_Rb_treeIjjSt9_IdentityIjESt4lessIjESaIjEE7_M_copyINS5_20_Reuse_or_alloc_nodeEEEPSt13_Rb_tree_nodeIjEPKS9_PSt18_Rb_tree_node_baseRT_@Base 6.2.2
 _ZNSt8_Rb_treeIjjSt9_IdentityIjESt4lessIjESaIjEE8_M_eraseEPSt13_Rb_tree_nodeIjE@Base 6.2.2
 _ZNSt8_Rb_treeIjjSt9_IdentityIjESt4lessIjESaIjEEaSERKS5_@Base 6.2.2
 _ZNSt8__detail16_Hashtable_allocISaINS_10_Hash_nodeINSt7__cxx1112basic_stringIcSt11char_traitsIcESaIcEEELb1EEEEE16_M_allocate_nodeIJRKS7_EEEPS8_DpOT_@Base 6.2.2
 (optional=templinst)_ZNSt8__detail9_Map_baseINSt7__cxx1112basic_stringIcSt11char_traitsIcESaIcEEESt4pairIKS6_St13unordered_setImSt4hashImESt8equal_toImESaImEEESaISG_ENS_10_Select1stESC_IS6_ESA_IS6_ENS_18_Mod_range_hashingENS_20_Default_ranged_hashENS_20_Prime_rehash_policyENS_17_Hashtable_traitsILb1ELb0ELb1EEELb1EEixEOS6_@Base 6.2.0
 (optional=templinst)_ZNSt8__detail9_Map_baseINSt7__cxx1112basic_stringIcSt11char_traitsIcESaIcEEESt4pairIKS6_jESaIS9_ENS_10_Select1stESt8equal_toIS6_ESt4hashIS6_ENS_18_Mod_range_hashingENS_20_Default_ranged_hashENS_20_Prime_rehash_policyENS_17_Hashtable_traitsILb1ELb0ELb1EEELb1EEixEOS6_@Base 6.2.0
 (optional=templinst)_ZNSt8__detail9_Map_baseINSt7__cxx1112basic_stringIcSt11char_traitsIcESaIcEEESt4pairIKS6_jESaIS9_ENS_10_Select1stESt8equal_toIS6_ESt4hashIS6_ENS_18_Mod_range_hashingENS_20_Default_ranged_hashENS_20_Prime_rehash_policyENS_17_Hashtable_traitsILb1ELb0ELb1EEELb1EEixERS8_@Base 6.2.0
 (optional=templinst)_ZNSt8__detail9_Map_baseIPKcSt4pairIKS2_jESaIS5_ENS_10_Select1stESt8equal_toIS2_ESt4hashIS2_ENS_18_Mod_range_hashingENS_20_Default_ranged_hashENS_20_Prime_rehash_policyENS_17_Hashtable_traitsILb0ELb0ELb1EEELb1EEixERS4_@Base 6.2.0
 (optional=templinst)_ZNSt8__detail9_Map_baseIiSt4pairIKiSt6vectorIiSaIiEEESaIS6_ENS_10_Select1stESt8equal_toIiESt4hashIiENS_18_Mod_range_hashingENS_20_Default_ranged_hashENS_20_Prime_rehash_policyENS_17_Hashtable_traitsILb0ELb0ELb1EEELb1EEixERS2_@Base 6.2.0
 (optional=templinst)_ZNSt8__detail9_Map_baseIiSt4pairIKiiESaIS3_ENS_10_Select1stESt8equal_toIiESt4hashIiENS_18_Mod_range_hashingENS_20_Default_ranged_hashENS_20_Prime_rehash_policyENS_17_Hashtable_traitsILb0ELb0ELb1EEELb1EEixEOi@Base 6.2.0
 (optional=templinst)_ZNSt8__detail9_Map_baseIiSt4pairIKijESaIS3_ENS_10_Select1stESt8equal_toIiESt4hashIiENS_18_Mod_range_hashingENS_20_Default_ranged_hashENS_20_Prime_rehash_policyENS_17_Hashtable_traitsILb0ELb0ELb1EEELb1EEixEOi@Base 6.2.0
 (optional=templinst)_ZNSt8__detail9_Map_baseIjSt4pairIKjNSt7__cxx1112basic_stringIcSt11char_traitsIcESaIcEEEESaIS9_ENS_10_Select1stESt8equal_toIjESt4hashIjENS_18_Mod_range_hashingENS_20_Default_ranged_hashENS_20_Prime_rehash_policyENS_17_Hashtable_traitsILb0ELb0ELb1EEELb1EEixEOj@Base 6.2.0
 (optional=templinst)_ZNSt8__detail9_Map_baseIjSt4pairIKjSt13unordered_setIjSt4hashIjESt8equal_toIjESaIjEEESaISA_ENS_10_Select1stES7_S5_NS_18_Mod_range_hashingENS_20_Default_ranged_hashENS_20_Prime_rehash_policyENS_17_Hashtable_traitsILb0ELb0ELb1EEELb1EEixEOj@Base 6.2.0
 (optional=templinst)_ZNSt8__detail9_Map_baseIjSt4pairIKjSt13unordered_setIjSt4hashIjESt8equal_toIjESaIjEEESaISA_ENS_10_Select1stES7_S5_NS_18_Mod_range_hashingENS_20_Default_ranged_hashENS_20_Prime_rehash_policyENS_17_Hashtable_traitsILb0ELb0ELb1EEELb1EEixERS2_@Base 6.2.0
 (optional=templinst)_ZNSt8__detail9_Map_baseIjSt4pairIKjSt3setIjSt4lessIjESaIjEEESaIS8_ENS_10_Select1stESt8equal_toIjESt4hashIjENS_18_Mod_range_hashingENS_20_Default_ranged_hashENS_20_Prime_rehash_policyENS_17_Hashtable_traitsILb0ELb0ELb1EEELb1EEixERS2_@Base 6.2.0
 (optional=templinst)_ZNSt8__detail9_Map_baseIjSt4pairIKjbESaIS3_ENS_10_Select1stESt8equal_toIjESt4hashIjENS_18_Mod_range_hashingENS_20_Default_ranged_hashENS_20_Prime_rehash_policyENS_17_Hashtable_traitsILb0ELb0ELb1EEELb1EEixEOj@Base 6.2.0
 (optional=templinst)_ZNSt8__detail9_Map_baseIjSt4pairIKjbESaIS3_ENS_10_Select1stESt8equal_toIjESt4hashIjENS_18_Mod_range_hashingENS_20_Default_ranged_hashENS_20_Prime_rehash_policyENS_17_Hashtable_traitsILb0ELb0ELb1EEELb1EEixERS2_@Base 6.2.0
 (optional=templinst)_ZNSt8__detail9_Map_baseIjSt4pairIKjiESaIS3_ENS_10_Select1stESt8equal_toIjESt4hashIjENS_18_Mod_range_hashingENS_20_Default_ranged_hashENS_20_Prime_rehash_policyENS_17_Hashtable_traitsILb0ELb0ELb1EEELb1EEixERS2_@Base 6.2.0
 (optional=templinst)_ZNSt8__detail9_Map_baseIjSt4pairIKjjESaIS3_ENS_10_Select1stESt8equal_toIjESt4hashIjENS_18_Mod_range_hashingENS_20_Default_ranged_hashENS_20_Prime_rehash_policyENS_17_Hashtable_traitsILb0ELb0ELb1EEELb1EEixEOj@Base 6.2.0
 (optional=templinst)_ZNSt8__detail9_Map_baseIjSt4pairIKjjESaIS3_ENS_10_Select1stESt8equal_toIjESt4hashIjENS_18_Mod_range_hashingENS_20_Default_ranged_hashENS_20_Prime_rehash_policyENS_17_Hashtable_traitsILb0ELb0ELb1EEELb1EEixERS2_@Base 6.2.0
 _ZNSt8functionIFvRKNSt7__cxx1112basic_stringIcSt11char_traitsIcESaIcEEEEEC1ISt5_BindIFM20QSpirvShaderRemapperFvS7_EPSC_St12_PlaceholderILi1EEEEvvEET_@Base 6.2.2
 _ZNSt8functionIFvRKNSt7__cxx1112basic_stringIcSt11char_traitsIcESaIcEEEEEC2ISt5_BindIFM20QSpirvShaderRemapperFvS7_EPSC_St12_PlaceholderILi1EEEEvvEET_@Base 6.2.2
 _ZSt17__rotate_adaptiveIPjS0_lET_S1_S1_S1_T1_S2_T0_S2_@Base 6.2.2
 _ZSt19piecewise_construct@Base 6.2.2
 _ZStplIcSt11char_traitsIcESaIcEENSt7__cxx1112basic_stringIT_T0_T1_EEOS8_PKS5_@Base 6.2.2
 _ZStplIcSt11char_traitsIcESaIcEENSt7__cxx1112basic_stringIT_T0_T1_EEOS8_RKS8_@Base 6.2.2
 _ZStplIcSt11char_traitsIcESaIcEENSt7__cxx1112basic_stringIT_T0_T1_EEOS8_S9_@Base 6.2.2
 _ZStplIcSt11char_traitsIcESaIcEENSt7__cxx1112basic_stringIT_T0_T1_EEPKS5_OS8_@Base 6.2.2
 (optional=templinst)_ZStplIcSt11char_traitsIcESaIcEENSt7__cxx1112basic_stringIT_T0_T1_EEPKS5_RKS8_@Base 6.2.0
 _ZStplIcSt11char_traitsIcESaIcEENSt7__cxx1112basic_stringIT_T0_T1_EERKS8_PKS5_@Base 6.2.2
 _ZStplIcSt11char_traitsIcESaIcEENSt7__cxx1112basic_stringIT_T0_T1_EERKS8_SA_@Base 6.2.2
 _ZStplIcSt11char_traitsIcESaIcEENSt7__cxx1112basic_stringIT_T0_T1_EES5_RKS8_@Base 6.2.2
 _ZTISt17_Weak_result_typeIM20QSpirvShaderRemapperFvRKNSt7__cxx1112basic_stringIcSt11char_traitsIcESaIcEEEEE@Base 6.2.0
 _ZTISt24_Weak_result_type_memfunIM20QSpirvShaderRemapperFvRKNSt7__cxx1112basic_stringIcSt11char_traitsIcESaIcEEEELb1EE@Base 6.2.0
 _ZTISt5_BindIFM20QSpirvShaderRemapperFvRKNSt7__cxx1112basic_stringIcSt11char_traitsIcESaIcEEEEPS0_St12_PlaceholderILi1EEEE@Base 6.2.0
 _ZTSSt17_Weak_result_typeIM20QSpirvShaderRemapperFvRKNSt7__cxx1112basic_stringIcSt11char_traitsIcESaIcEEEEE@Base 6.2.0
 _ZTSSt24_Weak_result_type_memfunIM20QSpirvShaderRemapperFvRKNSt7__cxx1112basic_stringIcSt11char_traitsIcESaIcEEEELb1EE@Base 6.2.0
 _ZTSSt5_BindIFM20QSpirvShaderRemapperFvRKNSt7__cxx1112basic_stringIcSt11char_traitsIcESaIcEEEEPS0_St12_PlaceholderILi1EEEE@Base 6.2.0
